; Function Attrs: mustprogress uwtable
define hidden void @_ZN11opencv_test29Layer_TopK_TopK_2D_Axis1_Test12PerfTestBodyEv(ptr noundef nonnull align 8 dereferenceable(305) %0) unnamed_addr #4 align 2 {
  %2 = getelementptr inbounds nuw i8, ptr %0, i64 256
  %3 = load ptr, ptr %2, align 8, !tbaa !59
  %4 = getelementptr inbounds nuw i8, ptr %3, i64 4
  %5 = load i32, ptr %4, align 4, !tbaa !77
  %6 = sdiv i32 %5, 2
  tail call void @_ZN11opencv_test10Layer_TopK10test_layerERKSt6vectorIiSaIiEEii(ptr noundef nonnull align 8 dereferenceable(304) %0, ptr noundef nonnull align 8 dereferenceable(24) %2, i32 noundef %6, i32 noundef 1)
  ret void
}